(lp0
(iPlugins.Extensions.IPTVPlayer.tsiplayer.addons.resources.lib.gui.guiElement
cGuiElement
p1
(dp2
S'_cGuiElement__sMetaAddon'
p3
S'false'
p4
sS'_cGuiElement__sTitleWatched'
p5
S'recherche'
p6
sS'_cGuiElement__sImdb'
p7
S''
p8
sS'_cGuiElement__Year'
p9
g8
sS'_cGuiElement__sPlaycount'
p10
I0
sS'_cGuiElement__sDecoColor'
p11
S'lightcoral'
p12
sS'_cGuiElement__sFileName'
p13
g8
sS'_cGuiElement__sCleanTitle'
p14
S'Recherche'
p15
sS'_cGuiElement__TmdbId'
p16
g8
sS'_cGuiElement__Season'
p17
g8
sS'_cGuiElement__sMediaUrl'
p18
g8
sS'_cGuiElement__aProperties'
p19
(dp20
S'siteUrl'
p21
S'http://venom'
p22
sS'sFav'
p23
S'showSearchText'
p24
sS'sCleanTitle'
p25
g8
sS'sId'
p26
S'cHome'
p27
sS'sMeta'
p28
S'0'
p29
sS'sCat'
p30
g8
ssS'_cGuiElement__sIcon'
p31
S'search.png'
p32
sS'_cGuiElement__sFanart'
p33
g8
sS'_cGuiElement__aContextElements'
p34
(lp35
sS'_cGuiElement__sTrailer'
p36
g8
sS'_cGuiElement__sPoster'
p37
g8
sS'_cGuiElement__sDescription'
p38
g8
sS'_cGuiElement__sGenre'
p39
g8
sS'_cGuiElement__sTitle'
p40
S'Recherche'
p41
sS'_cGuiElement__sTmdb'
p42
g8
sS'_cGuiElement__sFunctionName'
p43
g24
sS'_cGuiElement__ImdbId'
p44
g8
sS'_cGuiElement__Episode'
p45
g8
sS'_cGuiElement__sType'
p46
S'Video'
p47
sS'_cGuiElement__sCat'
p48
g8
sS'_cGuiElement__sSiteName'
p49
g27
sS'_cGuiElement__aItemValues'
p50
(dp51
S'trailer'
p52
S'plugin'
p53
sS'Title'
p54
g41
ssS'_cGuiElement__sMeta'
p55
I0
sS'_cGuiElement__sSiteUrl'
p56
g22
sS'_cGuiElement__sThumbnail'
p57
S'file:///usr/lib/enigma2/python/Plugins/Extensions/IPTVPlayer/tsiplayer/addons/resources/art/search.png'
p58
sS'_cGuiElement__sRootArt'
p59
S'file:///usr/lib/enigma2/python/Plugins/Extensions/IPTVPlayer/tsiplayer/addons/resources/art/'
p60
sba(iPlugins.Extensions.IPTVPlayer.tsiplayer.addons.resources.lib.handler.outputParameterHandler
cOutputParameterHandler
p61
(dp62
S'_cOutputParameterHandler__aParams'
p63
(dp64
g21
g22
sS'sTitleWatched'
p65
g6
sg23
g24
ssba.(lp0
(iPlugins.Extensions.IPTVPlayer.tsiplayer.addons.resources.lib.gui.guiElement
cGuiElement
p1
(dp2
S'_cGuiElement__sMetaAddon'
p3
S'false'
p4
sS'_cGuiElement__sTitleWatched'
p5
S'recherchevisuelle'
p6
sS'_cGuiElement__sImdb'
p7
S''
p8
sS'_cGuiElement__Year'
p9
g8
sS'_cGuiElement__sPlaycount'
p10
I0
sS'_cGuiElement__sDecoColor'
p11
S'lightcoral'
p12
sS'_cGuiElement__sFileName'
p13
g8
sS'_cGuiElement__sCleanTitle'
p14
S'Recherche visuelle'
p15
sS'_cGuiElement__TmdbId'
p16
g8
sS'_cGuiElement__Season'
p17
g8
sS'_cGuiElement__sMediaUrl'
p18
g8
sS'_cGuiElement__aProperties'
p19
(dp20
S'siteUrl'
p21
S'http://venom'
p22
sS'sFav'
p23
S'load'
p24
sS'sCleanTitle'
p25
g8
sS'sId'
p26
S'themoviedb_org'
p27
sS'sMeta'
p28
S'0'
p29
sS'sCat'
p30
g8
ssS'_cGuiElement__sIcon'
p31
S'searchtmdb.png'
p32
sS'_cGuiElement__sFanart'
p33
g8
sS'_cGuiElement__aContextElements'
p34
(lp35
sS'_cGuiElement__sTrailer'
p36
g8
sS'_cGuiElement__sPoster'
p37
g8
sS'_cGuiElement__sDescription'
p38
g8
sS'_cGuiElement__sGenre'
p39
g8
sS'_cGuiElement__sTitle'
p40
S'Recherche visuelle'
p41
sS'_cGuiElement__sTmdb'
p42
g8
sS'_cGuiElement__sFunctionName'
p43
g24
sS'_cGuiElement__ImdbId'
p44
g8
sS'_cGuiElement__Episode'
p45
g8
sS'_cGuiElement__sType'
p46
S'Video'
p47
sS'_cGuiElement__sCat'
p48
g8
sS'_cGuiElement__sSiteName'
p49
g27
sS'_cGuiElement__aItemValues'
p50
(dp51
S'trailer'
p52
S'plugin'
p53
sS'Title'
p54
g41
ssS'_cGuiElement__sMeta'
p55
I0
sS'_cGuiElement__sSiteUrl'
p56
g22
sS'_cGuiElement__sThumbnail'
p57
S'file:///usr/lib/enigma2/python/Plugins/Extensions/IPTVPlayer/tsiplayer/addons/resources/art/searchtmdb.png'
p58
sS'_cGuiElement__sRootArt'
p59
S'file:///usr/lib/enigma2/python/Plugins/Extensions/IPTVPlayer/tsiplayer/addons/resources/art/'
p60
sba(iPlugins.Extensions.IPTVPlayer.tsiplayer.addons.resources.lib.handler.outputParameterHandler
cOutputParameterHandler
p61
(dp62
S'_cOutputParameterHandler__aParams'
p63
(dp64
g21
g22
sS'sTitleWatched'
p65
g6
sg23
g24
ssba.(lp0
(iPlugins.Extensions.IPTVPlayer.tsiplayer.addons.resources.lib.gui.guiElement
cGuiElement
p1
(dp2
S'_cGuiElement__sMetaAddon'
p3
S'false'
p4
sS'_cGuiElement__sTitleWatched'
p5
S'marquepages'
p6
sS'_cGuiElement__sImdb'
p7
S''
p8
sS'_cGuiElement__Year'
p9
g8
sS'_cGuiElement__sPlaycount'
p10
I0
sS'_cGuiElement__sDecoColor'
p11
S'lightcoral'
p12
sS'_cGuiElement__sFileName'
p13
g8
sS'_cGuiElement__sCleanTitle'
p14
S'Marque-pages'
p15
sS'_cGuiElement__TmdbId'
p16
g8
sS'_cGuiElement__Season'
p17
g8
sS'_cGuiElement__sMediaUrl'
p18
g8
sS'_cGuiElement__aProperties'
p19
(dp20
S'siteUrl'
p21
S'http://venom'
p22
sS'sFav'
p23
S'getBookmarks'
p24
sS'sCleanTitle'
p25
g8
sS'sId'
p26
S'cFav'
p27
sS'sMeta'
p28
S'0'
p29
sS'sCat'
p30
g8
ssS'_cGuiElement__sIcon'
p31
S'mark.png'
p32
sS'_cGuiElement__sFanart'
p33
g8
sS'_cGuiElement__aContextElements'
p34
(lp35
sS'_cGuiElement__sTrailer'
p36
g8
sS'_cGuiElement__sPoster'
p37
g8
sS'_cGuiElement__sDescription'
p38
g8
sS'_cGuiElement__sGenre'
p39
g8
sS'_cGuiElement__sTitle'
p40
S'Marque-pages'
p41
sS'_cGuiElement__sTmdb'
p42
g8
sS'_cGuiElement__sFunctionName'
p43
g24
sS'_cGuiElement__ImdbId'
p44
g8
sS'_cGuiElement__Episode'
p45
g8
sS'_cGuiElement__sType'
p46
S'Video'
p47
sS'_cGuiElement__sCat'
p48
g8
sS'_cGuiElement__sSiteName'
p49
g27
sS'_cGuiElement__aItemValues'
p50
(dp51
S'trailer'
p52
S'plugin'
p53
sS'Title'
p54
g41
ssS'_cGuiElement__sMeta'
p55
I0
sS'_cGuiElement__sSiteUrl'
p56
g22
sS'_cGuiElement__sThumbnail'
p57
S'file:///usr/lib/enigma2/python/Plugins/Extensions/IPTVPlayer/tsiplayer/addons/resources/art/mark.png'
p58
sS'_cGuiElement__sRootArt'
p59
S'file:///usr/lib/enigma2/python/Plugins/Extensions/IPTVPlayer/tsiplayer/addons/resources/art/'
p60
sba(iPlugins.Extensions.IPTVPlayer.tsiplayer.addons.resources.lib.handler.outputParameterHandler
cOutputParameterHandler
p61
(dp62
S'_cOutputParameterHandler__aParams'
p63
(dp64
g21
g22
sS'sTitleWatched'
p65
g6
sg23
g24
ssba.(lp0
(iPlugins.Extensions.IPTVPlayer.tsiplayer.addons.resources.lib.gui.guiElement
cGuiElement
p1
(dp2
S'_cGuiElement__sMetaAddon'
p3
S'false'
p4
sS'_cGuiElement__sTitleWatched'
p5
S'films'
p6
sS'_cGuiElement__sImdb'
p7
S''
p8
sS'_cGuiElement__Year'
p9
g8
sS'_cGuiElement__sPlaycount'
p10
I0
sS'_cGuiElement__sDecoColor'
p11
S'lightcoral'
p12
sS'_cGuiElement__sFileName'
p13
g8
sS'_cGuiElement__sCleanTitle'
p14
S'Films'
p15
sS'_cGuiElement__TmdbId'
p16
g8
sS'_cGuiElement__Season'
p17
g8
sS'_cGuiElement__sMediaUrl'
p18
g8
sS'_cGuiElement__aProperties'
p19
(dp20
S'siteUrl'
p21
S'http://venom'
p22
sS'sFav'
p23
S'showMovies'
p24
sS'sCleanTitle'
p25
g8
sS'sId'
p26
S'cHome'
p27
sS'sMeta'
p28
S'0'
p29
sS'sCat'
p30
g8
ssS'_cGuiElement__sIcon'
p31
S'films.png'
p32
sS'_cGuiElement__sFanart'
p33
g8
sS'_cGuiElement__aContextElements'
p34
(lp35
sS'_cGuiElement__sTrailer'
p36
g8
sS'_cGuiElement__sPoster'
p37
g8
sS'_cGuiElement__sDescription'
p38
g8
sS'_cGuiElement__sGenre'
p39
g8
sS'_cGuiElement__sTitle'
p40
S'Films'
p41
sS'_cGuiElement__sTmdb'
p42
g8
sS'_cGuiElement__sFunctionName'
p43
g24
sS'_cGuiElement__ImdbId'
p44
g8
sS'_cGuiElement__Episode'
p45
g8
sS'_cGuiElement__sType'
p46
S'Video'
p47
sS'_cGuiElement__sCat'
p48
g8
sS'_cGuiElement__sSiteName'
p49
g27
sS'_cGuiElement__aItemValues'
p50
(dp51
S'trailer'
p52
S'plugin'
p53
sS'Title'
p54
g41
ssS'_cGuiElement__sMeta'
p55
I0
sS'_cGuiElement__sSiteUrl'
p56
g22
sS'_cGuiElement__sThumbnail'
p57
S'file:///usr/lib/enigma2/python/Plugins/Extensions/IPTVPlayer/tsiplayer/addons/resources/art/films.png'
p58
sS'_cGuiElement__sRootArt'
p59
S'file:///usr/lib/enigma2/python/Plugins/Extensions/IPTVPlayer/tsiplayer/addons/resources/art/'
p60
sba(iPlugins.Extensions.IPTVPlayer.tsiplayer.addons.resources.lib.handler.outputParameterHandler
cOutputParameterHandler
p61
(dp62
S'_cOutputParameterHandler__aParams'
p63
(dp64
g21
g22
sS'sTitleWatched'
p65
g6
sg23
g24
ssba.(lp0
(iPlugins.Extensions.IPTVPlayer.tsiplayer.addons.resources.lib.gui.guiElement
cGuiElement
p1
(dp2
S'_cGuiElement__sMetaAddon'
p3
S'false'
p4
sS'_cGuiElement__sTitleWatched'
p5
S'series'
p6
sS'_cGuiElement__sImdb'
p7
S''
p8
sS'_cGuiElement__Year'
p9
g8
sS'_cGuiElement__sPlaycount'
p10
I0
sS'_cGuiElement__sDecoColor'
p11
S'lightcoral'
p12
sS'_cGuiElement__sFileName'
p13
g8
sS'_cGuiElement__sCleanTitle'
p14
S'S\xc3\xa9ries'
p15
sS'_cGuiElement__TmdbId'
p16
g8
sS'_cGuiElement__Season'
p17
g8
sS'_cGuiElement__sMediaUrl'
p18
g8
sS'_cGuiElement__aProperties'
p19
(dp20
S'siteUrl'
p21
S'http://venom'
p22
sS'sFav'
p23
S'showSeries'
p24
sS'sCleanTitle'
p25
g8
sS'sId'
p26
S'cHome'
p27
sS'sMeta'
p28
S'0'
p29
sS'sCat'
p30
g8
ssS'_cGuiElement__sIcon'
p31
S'series.png'
p32
sS'_cGuiElement__sFanart'
p33
g8
sS'_cGuiElement__aContextElements'
p34
(lp35
sS'_cGuiElement__sTrailer'
p36
g8
sS'_cGuiElement__sPoster'
p37
g8
sS'_cGuiElement__sDescription'
p38
g8
sS'_cGuiElement__sGenre'
p39
g8
sS'_cGuiElement__sTitle'
p40
S'S\xc3\xa9ries'
p41
sS'_cGuiElement__sTmdb'
p42
g8
sS'_cGuiElement__sFunctionName'
p43
g24
sS'_cGuiElement__ImdbId'
p44
g8
sS'_cGuiElement__Episode'
p45
g8
sS'_cGuiElement__sType'
p46
S'Video'
p47
sS'_cGuiElement__sCat'
p48
g8
sS'_cGuiElement__sSiteName'
p49
g27
sS'_cGuiElement__aItemValues'
p50
(dp51
S'trailer'
p52
S'plugin'
p53
sS'Title'
p54
g41
ssS'_cGuiElement__sMeta'
p55
I0
sS'_cGuiElement__sSiteUrl'
p56
g22
sS'_cGuiElement__sThumbnail'
p57
S'file:///usr/lib/enigma2/python/Plugins/Extensions/IPTVPlayer/tsiplayer/addons/resources/art/series.png'
p58
sS'_cGuiElement__sRootArt'
p59
S'file:///usr/lib/enigma2/python/Plugins/Extensions/IPTVPlayer/tsiplayer/addons/resources/art/'
p60
sba(iPlugins.Extensions.IPTVPlayer.tsiplayer.addons.resources.lib.handler.outputParameterHandler
cOutputParameterHandler
p61
(dp62
S'_cOutputParameterHandler__aParams'
p63
(dp64
g21
g22
sS'sTitleWatched'
p65
g6
sg23
g24
ssba.(lp0
(iPlugins.Extensions.IPTVPlayer.tsiplayer.addons.resources.lib.gui.guiElement
cGuiElement
p1
(dp2
S'_cGuiElement__sMetaAddon'
p3
S'false'
p4
sS'_cGuiElement__sTitleWatched'
p5
S'animes'
p6
sS'_cGuiElement__sImdb'
p7
S''
p8
sS'_cGuiElement__Year'
p9
g8
sS'_cGuiElement__sPlaycount'
p10
I0
sS'_cGuiElement__sDecoColor'
p11
S'lightcoral'
p12
sS'_cGuiElement__sFileName'
p13
g8
sS'_cGuiElement__sCleanTitle'
p14
S'Anim\xc3\xa9s'
p15
sS'_cGuiElement__TmdbId'
p16
g8
sS'_cGuiElement__Season'
p17
g8
sS'_cGuiElement__sMediaUrl'
p18
g8
sS'_cGuiElement__aProperties'
p19
(dp20
S'siteUrl'
p21
S'http://venom'
p22
sS'sFav'
p23
S'showAnimes'
p24
sS'sCleanTitle'
p25
g8
sS'sId'
p26
S'cHome'
p27
sS'sMeta'
p28
S'0'
p29
sS'sCat'
p30
g8
ssS'_cGuiElement__sIcon'
p31
S'animes.png'
p32
sS'_cGuiElement__sFanart'
p33
g8
sS'_cGuiElement__aContextElements'
p34
(lp35
sS'_cGuiElement__sTrailer'
p36
g8
sS'_cGuiElement__sPoster'
p37
g8
sS'_cGuiElement__sDescription'
p38
g8
sS'_cGuiElement__sGenre'
p39
g8
sS'_cGuiElement__sTitle'
p40
S'Anim\xc3\xa9s'
p41
sS'_cGuiElement__sTmdb'
p42
g8
sS'_cGuiElement__sFunctionName'
p43
g24
sS'_cGuiElement__ImdbId'
p44
g8
sS'_cGuiElement__Episode'
p45
g8
sS'_cGuiElement__sType'
p46
S'Video'
p47
sS'_cGuiElement__sCat'
p48
g8
sS'_cGuiElement__sSiteName'
p49
g27
sS'_cGuiElement__aItemValues'
p50
(dp51
S'trailer'
p52
S'plugin'
p53
sS'Title'
p54
g41
ssS'_cGuiElement__sMeta'
p55
I0
sS'_cGuiElement__sSiteUrl'
p56
g22
sS'_cGuiElement__sThumbnail'
p57
S'file:///usr/lib/enigma2/python/Plugins/Extensions/IPTVPlayer/tsiplayer/addons/resources/art/animes.png'
p58
sS'_cGuiElement__sRootArt'
p59
S'file:///usr/lib/enigma2/python/Plugins/Extensions/IPTVPlayer/tsiplayer/addons/resources/art/'
p60
sba(iPlugins.Extensions.IPTVPlayer.tsiplayer.addons.resources.lib.handler.outputParameterHandler
cOutputParameterHandler
p61
(dp62
S'_cOutputParameterHandler__aParams'
p63
(dp64
g21
g22
sS'sTitleWatched'
p65
g6
sg23
g24
ssba.(lp0
(iPlugins.Extensions.IPTVPlayer.tsiplayer.addons.resources.lib.gui.guiElement
cGuiElement
p1
(dp2
S'_cGuiElement__sMetaAddon'
p3
S'false'
p4
sS'_cGuiElement__sTitleWatched'
p5
S'dramas'
p6
sS'_cGuiElement__sImdb'
p7
S''
p8
sS'_cGuiElement__Year'
p9
g8
sS'_cGuiElement__sPlaycount'
p10
I0
sS'_cGuiElement__sDecoColor'
p11
S'lightcoral'
p12
sS'_cGuiElement__sFileName'
p13
g8
sS'_cGuiElement__sCleanTitle'
p14
S'Dramas'
p15
sS'_cGuiElement__TmdbId'
p16
g8
sS'_cGuiElement__Season'
p17
g8
sS'_cGuiElement__sMediaUrl'
p18
g8
sS'_cGuiElement__aProperties'
p19
(dp20
S'siteUrl'
p21
S'http://venom'
p22
sS'sFav'
p23
S'showDramas'
p24
sS'sCleanTitle'
p25
g8
sS'sId'
p26
S'cHome'
p27
sS'sMeta'
p28
S'0'
p29
sS'sCat'
p30
g8
ssS'_cGuiElement__sIcon'
p31
S'dramas.png'
p32
sS'_cGuiElement__sFanart'
p33
g8
sS'_cGuiElement__aContextElements'
p34
(lp35
sS'_cGuiElement__sTrailer'
p36
g8
sS'_cGuiElement__sPoster'
p37
g8
sS'_cGuiElement__sDescription'
p38
g8
sS'_cGuiElement__sGenre'
p39
g8
sS'_cGuiElement__sTitle'
p40
S'Dramas'
p41
sS'_cGuiElement__sTmdb'
p42
g8
sS'_cGuiElement__sFunctionName'
p43
g24
sS'_cGuiElement__ImdbId'
p44
g8
sS'_cGuiElement__Episode'
p45
g8
sS'_cGuiElement__sType'
p46
S'Video'
p47
sS'_cGuiElement__sCat'
p48
g8
sS'_cGuiElement__sSiteName'
p49
g27
sS'_cGuiElement__aItemValues'
p50
(dp51
S'trailer'
p52
S'plugin'
p53
sS'Title'
p54
g41
ssS'_cGuiElement__sMeta'
p55
I0
sS'_cGuiElement__sSiteUrl'
p56
g22
sS'_cGuiElement__sThumbnail'
p57
S'file:///usr/lib/enigma2/python/Plugins/Extensions/IPTVPlayer/tsiplayer/addons/resources/art/dramas.png'
p58
sS'_cGuiElement__sRootArt'
p59
S'file:///usr/lib/enigma2/python/Plugins/Extensions/IPTVPlayer/tsiplayer/addons/resources/art/'
p60
sba(iPlugins.Extensions.IPTVPlayer.tsiplayer.addons.resources.lib.handler.outputParameterHandler
cOutputParameterHandler
p61
(dp62
S'_cOutputParameterHandler__aParams'
p63
(dp64
g21
g22
sS'sTitleWatched'
p65
g6
sg23
g24
ssba.(lp0
(iPlugins.Extensions.IPTVPlayer.tsiplayer.addons.resources.lib.gui.guiElement
cGuiElement
p1
(dp2
S'_cGuiElement__sMetaAddon'
p3
S'false'
p4
sS'_cGuiElement__sTitleWatched'
p5
S'documentaires'
p6
sS'_cGuiElement__sImdb'
p7
S''
p8
sS'_cGuiElement__Year'
p9
g8
sS'_cGuiElement__sPlaycount'
p10
I0
sS'_cGuiElement__sDecoColor'
p11
S'lightcoral'
p12
sS'_cGuiElement__sFileName'
p13
g8
sS'_cGuiElement__sCleanTitle'
p14
S'Documentaires'
p15
sS'_cGuiElement__TmdbId'
p16
g8
sS'_cGuiElement__Season'
p17
g8
sS'_cGuiElement__sMediaUrl'
p18
g8
sS'_cGuiElement__aProperties'
p19
(dp20
S'siteUrl'
p21
S'http://venom'
p22
sS'sFav'
p23
S'showDocs'
p24
sS'sCleanTitle'
p25
g8
sS'sId'
p26
S'cHome'
p27
sS'sMeta'
p28
S'0'
p29
sS'sCat'
p30
g8
ssS'_cGuiElement__sIcon'
p31
S'doc.png'
p32
sS'_cGuiElement__sFanart'
p33
g8
sS'_cGuiElement__aContextElements'
p34
(lp35
sS'_cGuiElement__sTrailer'
p36
g8
sS'_cGuiElement__sPoster'
p37
g8
sS'_cGuiElement__sDescription'
p38
g8
sS'_cGuiElement__sGenre'
p39
g8
sS'_cGuiElement__sTitle'
p40
S'Documentaires'
p41
sS'_cGuiElement__sTmdb'
p42
g8
sS'_cGuiElement__sFunctionName'
p43
g24
sS'_cGuiElement__ImdbId'
p44
g8
sS'_cGuiElement__Episode'
p45
g8
sS'_cGuiElement__sType'
p46
S'Video'
p47
sS'_cGuiElement__sCat'
p48
g8
sS'_cGuiElement__sSiteName'
p49
g27
sS'_cGuiElement__aItemValues'
p50
(dp51
S'trailer'
p52
S'plugin'
p53
sS'Title'
p54
g41
ssS'_cGuiElement__sMeta'
p55
I0
sS'_cGuiElement__sSiteUrl'
p56
g22
sS'_cGuiElement__sThumbnail'
p57
S'file:///usr/lib/enigma2/python/Plugins/Extensions/IPTVPlayer/tsiplayer/addons/resources/art/doc.png'
p58
sS'_cGuiElement__sRootArt'
p59
S'file:///usr/lib/enigma2/python/Plugins/Extensions/IPTVPlayer/tsiplayer/addons/resources/art/'
p60
sba(iPlugins.Extensions.IPTVPlayer.tsiplayer.addons.resources.lib.handler.outputParameterHandler
cOutputParameterHandler
p61
(dp62
S'_cOutputParameterHandler__aParams'
p63
(dp64
g21
g22
sS'sTitleWatched'
p65
g6
sg23
g24
ssba.(lp0
(iPlugins.Extensions.IPTVPlayer.tsiplayer.addons.resources.lib.gui.guiElement
cGuiElement
p1
(dp2
S'_cGuiElement__sMetaAddon'
p3
S'false'
p4
sS'_cGuiElement__sTitleWatched'
p5
S'sports'
p6
sS'_cGuiElement__sImdb'
p7
S''
p8
sS'_cGuiElement__Year'
p9
g8
sS'_cGuiElement__sPlaycount'
p10
I0
sS'_cGuiElement__sDecoColor'
p11
S'lightcoral'
p12
sS'_cGuiElement__sFileName'
p13
g8
sS'_cGuiElement__sCleanTitle'
p14
S'Sports'
p15
sS'_cGuiElement__TmdbId'
p16
g8
sS'_cGuiElement__Season'
p17
g8
sS'_cGuiElement__sMediaUrl'
p18
g8
sS'_cGuiElement__aProperties'
p19
(dp20
S'siteUrl'
p21
S'http://venom'
p22
sS'sFav'
p23
S'showSports'
p24
sS'sCleanTitle'
p25
g8
sS'sId'
p26
S'cHome'
p27
sS'sMeta'
p28
S'0'
p29
sS'sCat'
p30
g8
ssS'_cGuiElement__sIcon'
p31
S'sport.png'
p32
sS'_cGuiElement__sFanart'
p33
g8
sS'_cGuiElement__aContextElements'
p34
(lp35
sS'_cGuiElement__sTrailer'
p36
g8
sS'_cGuiElement__sPoster'
p37
g8
sS'_cGuiElement__sDescription'
p38
g8
sS'_cGuiElement__sGenre'
p39
g8
sS'_cGuiElement__sTitle'
p40
S'Sports'
p41
sS'_cGuiElement__sTmdb'
p42
g8
sS'_cGuiElement__sFunctionName'
p43
g24
sS'_cGuiElement__ImdbId'
p44
g8
sS'_cGuiElement__Episode'
p45
g8
sS'_cGuiElement__sType'
p46
S'Video'
p47
sS'_cGuiElement__sCat'
p48
g8
sS'_cGuiElement__sSiteName'
p49
g27
sS'_cGuiElement__aItemValues'
p50
(dp51
S'trailer'
p52
S'plugin'
p53
sS'Title'
p54
g41
ssS'_cGuiElement__sMeta'
p55
I0
sS'_cGuiElement__sSiteUrl'
p56
g22
sS'_cGuiElement__sThumbnail'
p57
S'file:///usr/lib/enigma2/python/Plugins/Extensions/IPTVPlayer/tsiplayer/addons/resources/art/sport.png'
p58
sS'_cGuiElement__sRootArt'
p59
S'file:///usr/lib/enigma2/python/Plugins/Extensions/IPTVPlayer/tsiplayer/addons/resources/art/'
p60
sba(iPlugins.Extensions.IPTVPlayer.tsiplayer.addons.resources.lib.handler.outputParameterHandler
cOutputParameterHandler
p61
(dp62
S'_cOutputParameterHandler__aParams'
p63
(dp64
g21
g22
sS'sTitleWatched'
p65
g6
sg23
g24
ssba.(lp0
(iPlugins.Extensions.IPTVPlayer.tsiplayer.addons.resources.lib.gui.guiElement
cGuiElement
p1
(dp2
S'_cGuiElement__sMetaAddon'
p3
S'false'
p4
sS'_cGuiElement__sTitleWatched'
p5
S'videosdunet'
p6
sS'_cGuiElement__sImdb'
p7
S''
p8
sS'_cGuiElement__Year'
p9
g8
sS'_cGuiElement__sPlaycount'
p10
I0
sS'_cGuiElement__sDecoColor'
p11
S'lightcoral'
p12
sS'_cGuiElement__sFileName'
p13
g8
sS'_cGuiElement__sCleanTitle'
p14
S'Vid\xc3\xa9os du net'
p15
sS'_cGuiElement__TmdbId'
p16
g8
sS'_cGuiElement__Season'
p17
g8
sS'_cGuiElement__sMediaUrl'
p18
g8
sS'_cGuiElement__aProperties'
p19
(dp20
S'siteUrl'
p21
S'http://venom'
p22
sS'sFav'
p23
S'showNets'
p24
sS'sCleanTitle'
p25
g8
sS'sId'
p26
S'cHome'
p27
sS'sMeta'
p28
S'0'
p29
sS'sCat'
p30
g8
ssS'_cGuiElement__sIcon'
p31
S'buzz.png'
p32
sS'_cGuiElement__sFanart'
p33
g8
sS'_cGuiElement__aContextElements'
p34
(lp35
sS'_cGuiElement__sTrailer'
p36
g8
sS'_cGuiElement__sPoster'
p37
g8
sS'_cGuiElement__sDescription'
p38
g8
sS'_cGuiElement__sGenre'
p39
g8
sS'_cGuiElement__sTitle'
p40
S'Vid\xc3\xa9os du net'
p41
sS'_cGuiElement__sTmdb'
p42
g8
sS'_cGuiElement__sFunctionName'
p43
g24
sS'_cGuiElement__ImdbId'
p44
g8
sS'_cGuiElement__Episode'
p45
g8
sS'_cGuiElement__sType'
p46
S'Video'
p47
sS'_cGuiElement__sCat'
p48
g8
sS'_cGuiElement__sSiteName'
p49
g27
sS'_cGuiElement__aItemValues'
p50
(dp51
S'trailer'
p52
S'plugin'
p53
sS'Title'
p54
g41
ssS'_cGuiElement__sMeta'
p55
I0
sS'_cGuiElement__sSiteUrl'
p56
g22
sS'_cGuiElement__sThumbnail'
p57
S'file:///usr/lib/enigma2/python/Plugins/Extensions/IPTVPlayer/tsiplayer/addons/resources/art/buzz.png'
p58
sS'_cGuiElement__sRootArt'
p59
S'file:///usr/lib/enigma2/python/Plugins/Extensions/IPTVPlayer/tsiplayer/addons/resources/art/'
p60
sba(iPlugins.Extensions.IPTVPlayer.tsiplayer.addons.resources.lib.handler.outputParameterHandler
cOutputParameterHandler
p61
(dp62
S'_cOutputParameterHandler__aParams'
p63
(dp64
g21
g22
sS'sTitleWatched'
p65
g6
sg23
g24
ssba.(lp0
(iPlugins.Extensions.IPTVPlayer.tsiplayer.addons.resources.lib.gui.guiElement
cGuiElement
p1
(dp2
S'_cGuiElement__sMetaAddon'
p3
S'false'
p4
sS'_cGuiElement__sTitleWatched'
p5
S'televisionmusique'
p6
sS'_cGuiElement__sImdb'
p7
S''
p8
sS'_cGuiElement__Year'
p9
g8
sS'_cGuiElement__sPlaycount'
p10
I0
sS'_cGuiElement__sDecoColor'
p11
S'lightcoral'
p12
sS'_cGuiElement__sFileName'
p13
g8
sS'_cGuiElement__sCleanTitle'
p14
S'T\xc3\xa9l\xc3\xa9vision/Musique'
p15
sS'_cGuiElement__TmdbId'
p16
g8
sS'_cGuiElement__Season'
p17
g8
sS'_cGuiElement__sMediaUrl'
p18
g8
sS'_cGuiElement__aProperties'
p19
(dp20
S'siteUrl'
p21
S'http://venom'
p22
sS'sFav'
p23
S'load'
p24
sS'sCleanTitle'
p25
g8
sS'sId'
p26
S'freebox'
p27
sS'sMeta'
p28
S'0'
p29
sS'sCat'
p30
g8
ssS'_cGuiElement__sIcon'
p31
S'tv.png'
p32
sS'_cGuiElement__sFanart'
p33
g8
sS'_cGuiElement__aContextElements'
p34
(lp35
sS'_cGuiElement__sTrailer'
p36
g8
sS'_cGuiElement__sPoster'
p37
g8
sS'_cGuiElement__sDescription'
p38
g8
sS'_cGuiElement__sGenre'
p39
g8
sS'_cGuiElement__sTitle'
p40
S'T\xc3\xa9l\xc3\xa9vision/Musique'
p41
sS'_cGuiElement__sTmdb'
p42
g8
sS'_cGuiElement__sFunctionName'
p43
g24
sS'_cGuiElement__ImdbId'
p44
g8
sS'_cGuiElement__Episode'
p45
g8
sS'_cGuiElement__sType'
p46
S'Video'
p47
sS'_cGuiElement__sCat'
p48
g8
sS'_cGuiElement__sSiteName'
p49
g27
sS'_cGuiElement__aItemValues'
p50
(dp51
S'trailer'
p52
S'plugin'
p53
sS'Title'
p54
g41
ssS'_cGuiElement__sMeta'
p55
I0
sS'_cGuiElement__sSiteUrl'
p56
g22
sS'_cGuiElement__sThumbnail'
p57
S'file:///usr/lib/enigma2/python/Plugins/Extensions/IPTVPlayer/tsiplayer/addons/resources/art/tv.png'
p58
sS'_cGuiElement__sRootArt'
p59
S'file:///usr/lib/enigma2/python/Plugins/Extensions/IPTVPlayer/tsiplayer/addons/resources/art/'
p60
sba(iPlugins.Extensions.IPTVPlayer.tsiplayer.addons.resources.lib.handler.outputParameterHandler
cOutputParameterHandler
p61
(dp62
S'_cOutputParameterHandler__aParams'
p63
(dp64
g21
g22
sS'sTitleWatched'
p65
g6
sg23
g24
ssba.(lp0
(iPlugins.Extensions.IPTVPlayer.tsiplayer.addons.resources.lib.gui.guiElement
cGuiElement
p1
(dp2
S'_cGuiElement__sMetaAddon'
p3
S'false'
p4
sS'_cGuiElement__sTitleWatched'
p5
S'tvreplay'
p6
sS'_cGuiElement__sImdb'
p7
S''
p8
sS'_cGuiElement__Year'
p9
g8
sS'_cGuiElement__sPlaycount'
p10
I0
sS'_cGuiElement__sDecoColor'
p11
S'lightcoral'
p12
sS'_cGuiElement__sFileName'
p13
g8
sS'_cGuiElement__sCleanTitle'
p14
S'TV replay'
p15
sS'_cGuiElement__TmdbId'
p16
g8
sS'_cGuiElement__Season'
p17
g8
sS'_cGuiElement__sMediaUrl'
p18
g8
sS'_cGuiElement__aProperties'
p19
(dp20
S'siteUrl'
p21
S'http://venom'
p22
sS'sFav'
p23
S'showReplay'
p24
sS'sCleanTitle'
p25
g8
sS'sId'
p26
S'cHome'
p27
sS'sMeta'
p28
S'0'
p29
sS'sCat'
p30
g8
ssS'_cGuiElement__sIcon'
p31
S'replay.png'
p32
sS'_cGuiElement__sFanart'
p33
g8
sS'_cGuiElement__aContextElements'
p34
(lp35
sS'_cGuiElement__sTrailer'
p36
g8
sS'_cGuiElement__sPoster'
p37
g8
sS'_cGuiElement__sDescription'
p38
g8
sS'_cGuiElement__sGenre'
p39
g8
sS'_cGuiElement__sTitle'
p40
S'TV replay'
p41
sS'_cGuiElement__sTmdb'
p42
g8
sS'_cGuiElement__sFunctionName'
p43
g24
sS'_cGuiElement__ImdbId'
p44
g8
sS'_cGuiElement__Episode'
p45
g8
sS'_cGuiElement__sType'
p46
S'Video'
p47
sS'_cGuiElement__sCat'
p48
g8
sS'_cGuiElement__sSiteName'
p49
g27
sS'_cGuiElement__aItemValues'
p50
(dp51
S'trailer'
p52
S'plugin'
p53
sS'Title'
p54
g41
ssS'_cGuiElement__sMeta'
p55
I0
sS'_cGuiElement__sSiteUrl'
p56
g22
sS'_cGuiElement__sThumbnail'
p57
S'file:///usr/lib/enigma2/python/Plugins/Extensions/IPTVPlayer/tsiplayer/addons/resources/art/replay.png'
p58
sS'_cGuiElement__sRootArt'
p59
S'file:///usr/lib/enigma2/python/Plugins/Extensions/IPTVPlayer/tsiplayer/addons/resources/art/'
p60
sba(iPlugins.Extensions.IPTVPlayer.tsiplayer.addons.resources.lib.handler.outputParameterHandler
cOutputParameterHandler
p61
(dp62
S'_cOutputParameterHandler__aParams'
p63
(dp64
g21
g22
sS'sTitleWatched'
p65
g6
sg23
g24
ssba.(lp0
(iPlugins.Extensions.IPTVPlayer.tsiplayer.addons.resources.lib.gui.guiElement
cGuiElement
p1
(dp2
S'_cGuiElement__sMetaAddon'
p3
S'false'
p4
sS'_cGuiElement__sTitleWatched'
p5
S'mescomptes'
p6
sS'_cGuiElement__sImdb'
p7
S''
p8
sS'_cGuiElement__Year'
p9
g8
sS'_cGuiElement__sPlaycount'
p10
I0
sS'_cGuiElement__sDecoColor'
p11
S'lightcoral'
p12
sS'_cGuiElement__sFileName'
p13
g8
sS'_cGuiElement__sCleanTitle'
p14
S'Mes comptes'
p15
sS'_cGuiElement__TmdbId'
p16
g8
sS'_cGuiElement__Season'
p17
g8
sS'_cGuiElement__sMediaUrl'
p18
g8
sS'_cGuiElement__aProperties'
p19
(dp20
S'siteUrl'
p21
S'http://venom'
p22
sS'sFav'
p23
S'showUsers'
p24
sS'sCleanTitle'
p25
g8
sS'sId'
p26
S'cHome'
p27
sS'sMeta'
p28
S'0'
p29
sS'sCat'
p30
g8
ssS'_cGuiElement__sIcon'
p31
S'user.png'
p32
sS'_cGuiElement__sFanart'
p33
g8
sS'_cGuiElement__aContextElements'
p34
(lp35
sS'_cGuiElement__sTrailer'
p36
g8
sS'_cGuiElement__sPoster'
p37
g8
sS'_cGuiElement__sDescription'
p38
g8
sS'_cGuiElement__sGenre'
p39
g8
sS'_cGuiElement__sTitle'
p40
S'Mes comptes'
p41
sS'_cGuiElement__sTmdb'
p42
g8
sS'_cGuiElement__sFunctionName'
p43
g24
sS'_cGuiElement__ImdbId'
p44
g8
sS'_cGuiElement__Episode'
p45
g8
sS'_cGuiElement__sType'
p46
S'Video'
p47
sS'_cGuiElement__sCat'
p48
g8
sS'_cGuiElement__sSiteName'
p49
g27
sS'_cGuiElement__aItemValues'
p50
(dp51
S'trailer'
p52
S'plugin'
p53
sS'Title'
p54
g41
ssS'_cGuiElement__sMeta'
p55
I0
sS'_cGuiElement__sSiteUrl'
p56
g22
sS'_cGuiElement__sThumbnail'
p57
S'file:///usr/lib/enigma2/python/Plugins/Extensions/IPTVPlayer/tsiplayer/addons/resources/art/user.png'
p58
sS'_cGuiElement__sRootArt'
p59
S'file:///usr/lib/enigma2/python/Plugins/Extensions/IPTVPlayer/tsiplayer/addons/resources/art/'
p60
sba(iPlugins.Extensions.IPTVPlayer.tsiplayer.addons.resources.lib.handler.outputParameterHandler
cOutputParameterHandler
p61
(dp62
S'_cOutputParameterHandler__aParams'
p63
(dp64
g21
g22
sS'sTitleWatched'
p65
g6
sg23
g24
ssba.(lp0
(iPlugins.Extensions.IPTVPlayer.tsiplayer.addons.resources.lib.gui.guiElement
cGuiElement
p1
(dp2
S'_cGuiElement__sMetaAddon'
p3
S'false'
p4
sS'_cGuiElement__sTitleWatched'
p5
S'outils'
p6
sS'_cGuiElement__sImdb'
p7
S''
p8
sS'_cGuiElement__Year'
p9
g8
sS'_cGuiElement__sPlaycount'
p10
I0
sS'_cGuiElement__sDecoColor'
p11
S'lightcoral'
p12
sS'_cGuiElement__sFileName'
p13
g8
sS'_cGuiElement__sCleanTitle'
p14
S'Outils'
p15
sS'_cGuiElement__TmdbId'
p16
g8
sS'_cGuiElement__Season'
p17
g8
sS'_cGuiElement__sMediaUrl'
p18
g8
sS'_cGuiElement__aProperties'
p19
(dp20
S'siteUrl'
p21
S'http://venom'
p22
sS'sFav'
p23
S'ShowTools'
p24
sS'sCleanTitle'
p25
g8
sS'sId'
p26
S'cHome'
p27
sS'sMeta'
p28
S'0'
p29
sS'sCat'
p30
g8
ssS'_cGuiElement__sIcon'
p31
S'download.png'
p32
sS'_cGuiElement__sFanart'
p33
g8
sS'_cGuiElement__aContextElements'
p34
(lp35
sS'_cGuiElement__sTrailer'
p36
g8
sS'_cGuiElement__sPoster'
p37
g8
sS'_cGuiElement__sDescription'
p38
g8
sS'_cGuiElement__sGenre'
p39
g8
sS'_cGuiElement__sTitle'
p40
S'Outils'
p41
sS'_cGuiElement__sTmdb'
p42
g8
sS'_cGuiElement__sFunctionName'
p43
g24
sS'_cGuiElement__ImdbId'
p44
g8
sS'_cGuiElement__Episode'
p45
g8
sS'_cGuiElement__sType'
p46
S'Video'
p47
sS'_cGuiElement__sCat'
p48
g8
sS'_cGuiElement__sSiteName'
p49
g27
sS'_cGuiElement__aItemValues'
p50
(dp51
S'trailer'
p52
S'plugin'
p53
sS'Title'
p54
g41
ssS'_cGuiElement__sMeta'
p55
I0
sS'_cGuiElement__sSiteUrl'
p56
g22
sS'_cGuiElement__sThumbnail'
p57
S'file:///usr/lib/enigma2/python/Plugins/Extensions/IPTVPlayer/tsiplayer/addons/resources/art/download.png'
p58
sS'_cGuiElement__sRootArt'
p59
S'file:///usr/lib/enigma2/python/Plugins/Extensions/IPTVPlayer/tsiplayer/addons/resources/art/'
p60
sba(iPlugins.Extensions.IPTVPlayer.tsiplayer.addons.resources.lib.handler.outputParameterHandler
cOutputParameterHandler
p61
(dp62
S'_cOutputParameterHandler__aParams'
p63
(dp64
g21
g22
sS'sTitleWatched'
p65
g6
sg23
g24
ssba.(lp0
(iPlugins.Extensions.IPTVPlayer.tsiplayer.addons.resources.lib.gui.guiElement
cGuiElement
p1
(dp2
S'_cGuiElement__sMetaAddon'
p3
S'false'
p4
sS'_cGuiElement__sTitleWatched'
p5
S'historiquederecherche'
p6
sS'_cGuiElement__sImdb'
p7
S''
p8
sS'_cGuiElement__Year'
p9
g8
sS'_cGuiElement__sPlaycount'
p10
I0
sS'_cGuiElement__sDecoColor'
p11
S'lightcoral'
p12
sS'_cGuiElement__sFileName'
p13
g8
sS'_cGuiElement__sCleanTitle'
p14
S'Historique de recherche'
p15
sS'_cGuiElement__TmdbId'
p16
g8
sS'_cGuiElement__Season'
p17
g8
sS'_cGuiElement__sMediaUrl'
p18
g8
sS'_cGuiElement__aProperties'
p19
(dp20
S'siteUrl'
p21
S'http://venom'
p22
sS'sFav'
p23
S'showHistory'
p24
sS'sCleanTitle'
p25
g8
sS'sId'
p26
S'cHome'
p27
sS'sMeta'
p28
S'0'
p29
sS'sCat'
p30
g8
ssS'_cGuiElement__sIcon'
p31
S'annees.png'
p32
sS'_cGuiElement__sFanart'
p33
g8
sS'_cGuiElement__aContextElements'
p34
(lp35
sS'_cGuiElement__sTrailer'
p36
g8
sS'_cGuiElement__sPoster'
p37
g8
sS'_cGuiElement__sDescription'
p38
g8
sS'_cGuiElement__sGenre'
p39
g8
sS'_cGuiElement__sTitle'
p40
S'Historique de recherche'
p41
sS'_cGuiElement__sTmdb'
p42
g8
sS'_cGuiElement__sFunctionName'
p43
g24
sS'_cGuiElement__ImdbId'
p44
g8
sS'_cGuiElement__Episode'
p45
g8
sS'_cGuiElement__sType'
p46
S'Video'
p47
sS'_cGuiElement__sCat'
p48
g8
sS'_cGuiElement__sSiteName'
p49
g27
sS'_cGuiElement__aItemValues'
p50
(dp51
S'trailer'
p52
S'plugin'
p53
sS'Title'
p54
g41
ssS'_cGuiElement__sMeta'
p55
I0
sS'_cGuiElement__sSiteUrl'
p56
g22
sS'_cGuiElement__sThumbnail'
p57
S'file:///usr/lib/enigma2/python/Plugins/Extensions/IPTVPlayer/tsiplayer/addons/resources/art/annees.png'
p58
sS'_cGuiElement__sRootArt'
p59
S'file:///usr/lib/enigma2/python/Plugins/Extensions/IPTVPlayer/tsiplayer/addons/resources/art/'
p60
sba(iPlugins.Extensions.IPTVPlayer.tsiplayer.addons.resources.lib.handler.outputParameterHandler
cOutputParameterHandler
p61
(dp62
S'_cOutputParameterHandler__aParams'
p63
(dp64
g21
g22
sS'sTitleWatched'
p65
g6
sg23
g24
ssba.(lp0
(iPlugins.Extensions.IPTVPlayer.tsiplayer.addons.resources.lib.gui.guiElement
cGuiElement
p1
(dp2
S'_cGuiElement__sMetaAddon'
p3
S'false'
p4
sS'_cGuiElement__sTitleWatched'
p5
S'sources'
p6
sS'_cGuiElement__sImdb'
p7
S''
p8
sS'_cGuiElement__Year'
p9
g8
sS'_cGuiElement__sPlaycount'
p10
I0
sS'_cGuiElement__sDecoColor'
p11
S'lightcoral'
p12
sS'_cGuiElement__sFileName'
p13
g8
sS'_cGuiElement__sCleanTitle'
p14
S'Sources'
p15
sS'_cGuiElement__TmdbId'
p16
g8
sS'_cGuiElement__Season'
p17
g8
sS'_cGuiElement__sMediaUrl'
p18
g8
sS'_cGuiElement__aProperties'
p19
(dp20
S'siteUrl'
p21
S'http://venom'
p22
sS'sFav'
p23
S'globalSources'
p24
sS'sCleanTitle'
p25
g8
sS'sId'
p26
g24
sS'sMeta'
p27
S'0'
p28
sS'sCat'
p29
g8
ssS'_cGuiElement__sIcon'
p30
S'host.png'
p31
sS'_cGuiElement__sFanart'
p32
g8
sS'_cGuiElement__aContextElements'
p33
(lp34
sS'_cGuiElement__sTrailer'
p35
g8
sS'_cGuiElement__sPoster'
p36
g8
sS'_cGuiElement__sDescription'
p37
g8
sS'_cGuiElement__sGenre'
p38
g8
sS'_cGuiElement__sTitle'
p39
S'Sources'
p40
sS'_cGuiElement__sTmdb'
p41
g8
sS'_cGuiElement__sFunctionName'
p42
g24
sS'_cGuiElement__ImdbId'
p43
g8
sS'_cGuiElement__Episode'
p44
g8
sS'_cGuiElement__sType'
p45
S'Video'
p46
sS'_cGuiElement__sCat'
p47
g8
sS'_cGuiElement__sSiteName'
p48
g24
sS'_cGuiElement__aItemValues'
p49
(dp50
S'trailer'
p51
S'plugin'
p52
sS'Title'
p53
g40
ssS'_cGuiElement__sMeta'
p54
I0
sS'_cGuiElement__sSiteUrl'
p55
g22
sS'_cGuiElement__sThumbnail'
p56
S'file:///usr/lib/enigma2/python/Plugins/Extensions/IPTVPlayer/tsiplayer/addons/resources/art/host.png'
p57
sS'_cGuiElement__sRootArt'
p58
S'file:///usr/lib/enigma2/python/Plugins/Extensions/IPTVPlayer/tsiplayer/addons/resources/art/'
p59
sba(iPlugins.Extensions.IPTVPlayer.tsiplayer.addons.resources.lib.handler.outputParameterHandler
cOutputParameterHandler
p60
(dp61
S'_cOutputParameterHandler__aParams'
p62
(dp63
g21
g22
sS'sTitleWatched'
p64
g6
sg23
g24
ssba.