(lp0
(iPlugins.Extensions.IPTVPlayer.tsiplayer.addons.resources.lib.gui.guiElement
cGuiElement
p1
(dp2
S'_cGuiElement__sMetaAddon'
p3
S'false'
p4
sS'_cGuiElement__sTitleWatched'
p5
S'recherche'
p6
sS'_cGuiElement__sImdb'
p7
S''
p8
sS'_cGuiElement__Year'
p9
g8
sS'_cGuiElement__sPlaycount'
p10
I0
sS'_cGuiElement__sDecoColor'
p11
S'lightcoral'
p12
sS'_cGuiElement__sFileName'
p13
g8
sS'_cGuiElement__sCleanTitle'
p14
S'Recherche'
p15
sS'_cGuiElement__TmdbId'
p16
g8
sS'_cGuiElement__Season'
p17
g8
sS'_cGuiElement__sMediaUrl'
p18
g8
sS'_cGuiElement__aProperties'
p19
(dp20
S'sId'
p21
S'cHome'
p22
sS'sMeta'
p23
S'0'
p24
sS'siteUrl'
p25
S'http://venom'
p26
sS'sFav'
p27
S'showSearchText'
p28
sS'sCleanTitle'
p29
g8
ssS'_cGuiElement__sIcon'
p30
S'search.png'
p31
sS'_cGuiElement__sFanart'
p32
g8
sS'_cGuiElement__aContextElements'
p33
(lp34
sS'_cGuiElement__sTrailer'
p35
g8
sS'_cGuiElement__sPoster'
p36
g8
sS'_cGuiElement__sDescription'
p37
g8
sS'_cGuiElement__sGenre'
p38
g8
sS'_cGuiElement__sTitle'
p39
S'Recherche'
p40
sS'_cGuiElement__sTmdb'
p41
g8
sS'_cGuiElement__sFunctionName'
p42
g28
sS'_cGuiElement__ImdbId'
p43
g8
sS'_cGuiElement__Episode'
p44
g8
sS'_cGuiElement__sType'
p45
S'video'
p46
sS'_cGuiElement__sCat'
p47
g8
sS'_cGuiElement__sSiteName'
p48
g22
sS'_cGuiElement__aItemValues'
p49
(dp50
S'originaltitle'
p51
g6
sS'trailer'
p52
S'plugin'
p53
sS'title'
p54
g40
ssS'_cGuiElement__sMeta'
p55
I0
sS'_cGuiElement__sSiteUrl'
p56
g26
sS'_cGuiElement__sThumbnail'
p57
S'file:///usr/lib/enigma2/python/Plugins/Extensions/IPTVPlayer/tsiplayer/addons/resources/art/search.png'
p58
sS'_cGuiElement__sRootArt'
p59
S'file:///usr/lib/enigma2/python/Plugins/Extensions/IPTVPlayer/tsiplayer/addons/resources/art/'
p60
sba(iPlugins.Extensions.IPTVPlayer.tsiplayer.addons.resources.lib.handler.outputParameterHandler
cOutputParameterHandler
p61
(dp62
S'_cOutputParameterHandler__aParams'
p63
(dp64
g25
g26
sS'sTitleWatched'
p65
g6
sg27
g28
ssbaF1625077593665.0
a.(lp0
(iPlugins.Extensions.IPTVPlayer.tsiplayer.addons.resources.lib.gui.guiElement
cGuiElement
p1
(dp2
S'_cGuiElement__sMetaAddon'
p3
S'false'
p4
sS'_cGuiElement__sTitleWatched'
p5
S'films'
p6
sS'_cGuiElement__sImdb'
p7
S''
p8
sS'_cGuiElement__Year'
p9
g8
sS'_cGuiElement__sPlaycount'
p10
I0
sS'_cGuiElement__sDecoColor'
p11
S'lightcoral'
p12
sS'_cGuiElement__sFileName'
p13
g8
sS'_cGuiElement__sCleanTitle'
p14
S'Films'
p15
sS'_cGuiElement__TmdbId'
p16
g8
sS'_cGuiElement__Season'
p17
g8
sS'_cGuiElement__sMediaUrl'
p18
g8
sS'_cGuiElement__aProperties'
p19
(dp20
S'sId'
p21
S'cHome'
p22
sS'sMeta'
p23
S'0'
p24
sS'siteUrl'
p25
S'http://venom'
p26
sS'sFav'
p27
S'showMovies'
p28
sS'sCleanTitle'
p29
g8
ssS'_cGuiElement__sIcon'
p30
S'films.png'
p31
sS'_cGuiElement__sFanart'
p32
g8
sS'_cGuiElement__aContextElements'
p33
(lp34
sS'_cGuiElement__sTrailer'
p35
g8
sS'_cGuiElement__sPoster'
p36
g8
sS'_cGuiElement__sDescription'
p37
g8
sS'_cGuiElement__sGenre'
p38
g8
sS'_cGuiElement__sTitle'
p39
S'Films'
p40
sS'_cGuiElement__sTmdb'
p41
g8
sS'_cGuiElement__sFunctionName'
p42
g28
sS'_cGuiElement__ImdbId'
p43
g8
sS'_cGuiElement__Episode'
p44
g8
sS'_cGuiElement__sType'
p45
S'video'
p46
sS'_cGuiElement__sCat'
p47
g8
sS'_cGuiElement__sSiteName'
p48
g22
sS'_cGuiElement__aItemValues'
p49
(dp50
S'originaltitle'
p51
g6
sS'trailer'
p52
S'plugin'
p53
sS'title'
p54
g40
ssS'_cGuiElement__sMeta'
p55
I0
sS'_cGuiElement__sSiteUrl'
p56
g26
sS'_cGuiElement__sThumbnail'
p57
S'file:///usr/lib/enigma2/python/Plugins/Extensions/IPTVPlayer/tsiplayer/addons/resources/art/films.png'
p58
sS'_cGuiElement__sRootArt'
p59
S'file:///usr/lib/enigma2/python/Plugins/Extensions/IPTVPlayer/tsiplayer/addons/resources/art/'
p60
sba(iPlugins.Extensions.IPTVPlayer.tsiplayer.addons.resources.lib.handler.outputParameterHandler
cOutputParameterHandler
p61
(dp62
S'_cOutputParameterHandler__aParams'
p63
(dp64
g25
g26
sS'sTitleWatched'
p65
g6
sg27
g28
ssbaF1625077593689.0
a.(lp0
(iPlugins.Extensions.IPTVPlayer.tsiplayer.addons.resources.lib.gui.guiElement
cGuiElement
p1
(dp2
S'_cGuiElement__sMetaAddon'
p3
S'false'
p4
sS'_cGuiElement__sTitleWatched'
p5
S'series'
p6
sS'_cGuiElement__sImdb'
p7
S''
p8
sS'_cGuiElement__Year'
p9
g8
sS'_cGuiElement__sPlaycount'
p10
I0
sS'_cGuiElement__sDecoColor'
p11
S'lightcoral'
p12
sS'_cGuiElement__sFileName'
p13
g8
sS'_cGuiElement__sCleanTitle'
p14
S'S\xc3\xa9ries'
p15
sS'_cGuiElement__TmdbId'
p16
g8
sS'_cGuiElement__Season'
p17
g8
sS'_cGuiElement__sMediaUrl'
p18
g8
sS'_cGuiElement__aProperties'
p19
(dp20
S'sId'
p21
S'cHome'
p22
sS'sMeta'
p23
S'0'
p24
sS'siteUrl'
p25
S'http://venom'
p26
sS'sFav'
p27
S'showSeries'
p28
sS'sCleanTitle'
p29
g8
ssS'_cGuiElement__sIcon'
p30
S'series.png'
p31
sS'_cGuiElement__sFanart'
p32
g8
sS'_cGuiElement__aContextElements'
p33
(lp34
sS'_cGuiElement__sTrailer'
p35
g8
sS'_cGuiElement__sPoster'
p36
g8
sS'_cGuiElement__sDescription'
p37
g8
sS'_cGuiElement__sGenre'
p38
g8
sS'_cGuiElement__sTitle'
p39
S'S\xc3\xa9ries'
p40
sS'_cGuiElement__sTmdb'
p41
g8
sS'_cGuiElement__sFunctionName'
p42
g28
sS'_cGuiElement__ImdbId'
p43
g8
sS'_cGuiElement__Episode'
p44
g8
sS'_cGuiElement__sType'
p45
S'video'
p46
sS'_cGuiElement__sCat'
p47
g8
sS'_cGuiElement__sSiteName'
p48
g22
sS'_cGuiElement__aItemValues'
p49
(dp50
S'originaltitle'
p51
g6
sS'trailer'
p52
S'plugin'
p53
sS'title'
p54
g40
ssS'_cGuiElement__sMeta'
p55
I0
sS'_cGuiElement__sSiteUrl'
p56
g26
sS'_cGuiElement__sThumbnail'
p57
S'file:///usr/lib/enigma2/python/Plugins/Extensions/IPTVPlayer/tsiplayer/addons/resources/art/series.png'
p58
sS'_cGuiElement__sRootArt'
p59
S'file:///usr/lib/enigma2/python/Plugins/Extensions/IPTVPlayer/tsiplayer/addons/resources/art/'
p60
sba(iPlugins.Extensions.IPTVPlayer.tsiplayer.addons.resources.lib.handler.outputParameterHandler
cOutputParameterHandler
p61
(dp62
S'_cOutputParameterHandler__aParams'
p63
(dp64
g25
g26
sS'sTitleWatched'
p65
g6
sg27
g28
ssbaF1625077593697.0
a.(lp0
(iPlugins.Extensions.IPTVPlayer.tsiplayer.addons.resources.lib.gui.guiElement
cGuiElement
p1
(dp2
S'_cGuiElement__sMetaAddon'
p3
S'false'
p4
sS'_cGuiElement__sTitleWatched'
p5
S'animes'
p6
sS'_cGuiElement__sImdb'
p7
S''
p8
sS'_cGuiElement__Year'
p9
g8
sS'_cGuiElement__sPlaycount'
p10
I0
sS'_cGuiElement__sDecoColor'
p11
S'lightcoral'
p12
sS'_cGuiElement__sFileName'
p13
g8
sS'_cGuiElement__sCleanTitle'
p14
S'Anim\xc3\xa9s'
p15
sS'_cGuiElement__TmdbId'
p16
g8
sS'_cGuiElement__Season'
p17
g8
sS'_cGuiElement__sMediaUrl'
p18
g8
sS'_cGuiElement__aProperties'
p19
(dp20
S'sId'
p21
S'cHome'
p22
sS'sMeta'
p23
S'0'
p24
sS'siteUrl'
p25
S'http://venom'
p26
sS'sFav'
p27
S'showAnimes'
p28
sS'sCleanTitle'
p29
g8
ssS'_cGuiElement__sIcon'
p30
S'animes.png'
p31
sS'_cGuiElement__sFanart'
p32
g8
sS'_cGuiElement__aContextElements'
p33
(lp34
sS'_cGuiElement__sTrailer'
p35
g8
sS'_cGuiElement__sPoster'
p36
g8
sS'_cGuiElement__sDescription'
p37
g8
sS'_cGuiElement__sGenre'
p38
g8
sS'_cGuiElement__sTitle'
p39
S'Anim\xc3\xa9s'
p40
sS'_cGuiElement__sTmdb'
p41
g8
sS'_cGuiElement__sFunctionName'
p42
g28
sS'_cGuiElement__ImdbId'
p43
g8
sS'_cGuiElement__Episode'
p44
g8
sS'_cGuiElement__sType'
p45
S'video'
p46
sS'_cGuiElement__sCat'
p47
g8
sS'_cGuiElement__sSiteName'
p48
g22
sS'_cGuiElement__aItemValues'
p49
(dp50
S'originaltitle'
p51
g6
sS'trailer'
p52
S'plugin'
p53
sS'title'
p54
g40
ssS'_cGuiElement__sMeta'
p55
I0
sS'_cGuiElement__sSiteUrl'
p56
g26
sS'_cGuiElement__sThumbnail'
p57
S'file:///usr/lib/enigma2/python/Plugins/Extensions/IPTVPlayer/tsiplayer/addons/resources/art/animes.png'
p58
sS'_cGuiElement__sRootArt'
p59
S'file:///usr/lib/enigma2/python/Plugins/Extensions/IPTVPlayer/tsiplayer/addons/resources/art/'
p60
sba(iPlugins.Extensions.IPTVPlayer.tsiplayer.addons.resources.lib.handler.outputParameterHandler
cOutputParameterHandler
p61
(dp62
S'_cOutputParameterHandler__aParams'
p63
(dp64
g25
g26
sS'sTitleWatched'
p65
g6
sg27
g28
ssbaF1625077593705.0
a.(lp0
(iPlugins.Extensions.IPTVPlayer.tsiplayer.addons.resources.lib.gui.guiElement
cGuiElement
p1
(dp2
S'_cGuiElement__sMetaAddon'
p3
S'false'
p4
sS'_cGuiElement__sTitleWatched'
p5
S'dramas'
p6
sS'_cGuiElement__sImdb'
p7
S''
p8
sS'_cGuiElement__Year'
p9
g8
sS'_cGuiElement__sPlaycount'
p10
I0
sS'_cGuiElement__sDecoColor'
p11
S'lightcoral'
p12
sS'_cGuiElement__sFileName'
p13
g8
sS'_cGuiElement__sCleanTitle'
p14
S'Dramas'
p15
sS'_cGuiElement__TmdbId'
p16
g8
sS'_cGuiElement__Season'
p17
g8
sS'_cGuiElement__sMediaUrl'
p18
g8
sS'_cGuiElement__aProperties'
p19
(dp20
S'sId'
p21
S'cHome'
p22
sS'sMeta'
p23
S'0'
p24
sS'siteUrl'
p25
S'http://venom'
p26
sS'sFav'
p27
S'showDramas'
p28
sS'sCleanTitle'
p29
g8
ssS'_cGuiElement__sIcon'
p30
S'dramas.png'
p31
sS'_cGuiElement__sFanart'
p32
g8
sS'_cGuiElement__aContextElements'
p33
(lp34
sS'_cGuiElement__sTrailer'
p35
g8
sS'_cGuiElement__sPoster'
p36
g8
sS'_cGuiElement__sDescription'
p37
g8
sS'_cGuiElement__sGenre'
p38
g8
sS'_cGuiElement__sTitle'
p39
S'Dramas'
p40
sS'_cGuiElement__sTmdb'
p41
g8
sS'_cGuiElement__sFunctionName'
p42
g28
sS'_cGuiElement__ImdbId'
p43
g8
sS'_cGuiElement__Episode'
p44
g8
sS'_cGuiElement__sType'
p45
S'video'
p46
sS'_cGuiElement__sCat'
p47
g8
sS'_cGuiElement__sSiteName'
p48
g22
sS'_cGuiElement__aItemValues'
p49
(dp50
S'originaltitle'
p51
g6
sS'trailer'
p52
S'plugin'
p53
sS'title'
p54
g40
ssS'_cGuiElement__sMeta'
p55
I0
sS'_cGuiElement__sSiteUrl'
p56
g26
sS'_cGuiElement__sThumbnail'
p57
S'file:///usr/lib/enigma2/python/Plugins/Extensions/IPTVPlayer/tsiplayer/addons/resources/art/dramas.png'
p58
sS'_cGuiElement__sRootArt'
p59
S'file:///usr/lib/enigma2/python/Plugins/Extensions/IPTVPlayer/tsiplayer/addons/resources/art/'
p60
sba(iPlugins.Extensions.IPTVPlayer.tsiplayer.addons.resources.lib.handler.outputParameterHandler
cOutputParameterHandler
p61
(dp62
S'_cOutputParameterHandler__aParams'
p63
(dp64
g25
g26
sS'sTitleWatched'
p65
g6
sg27
g28
ssbaF1625077593712.0
a.(lp0
(iPlugins.Extensions.IPTVPlayer.tsiplayer.addons.resources.lib.gui.guiElement
cGuiElement
p1
(dp2
S'_cGuiElement__sMetaAddon'
p3
S'false'
p4
sS'_cGuiElement__sTitleWatched'
p5
S'documentaires'
p6
sS'_cGuiElement__sImdb'
p7
S''
p8
sS'_cGuiElement__Year'
p9
g8
sS'_cGuiElement__sPlaycount'
p10
I0
sS'_cGuiElement__sDecoColor'
p11
S'lightcoral'
p12
sS'_cGuiElement__sFileName'
p13
g8
sS'_cGuiElement__sCleanTitle'
p14
S'Documentaires'
p15
sS'_cGuiElement__TmdbId'
p16
g8
sS'_cGuiElement__Season'
p17
g8
sS'_cGuiElement__sMediaUrl'
p18
g8
sS'_cGuiElement__aProperties'
p19
(dp20
S'sId'
p21
S'cHome'
p22
sS'sMeta'
p23
S'0'
p24
sS'siteUrl'
p25
S'http://venom'
p26
sS'sFav'
p27
S'showDocs'
p28
sS'sCleanTitle'
p29
g8
ssS'_cGuiElement__sIcon'
p30
S'doc.png'
p31
sS'_cGuiElement__sFanart'
p32
g8
sS'_cGuiElement__aContextElements'
p33
(lp34
sS'_cGuiElement__sTrailer'
p35
g8
sS'_cGuiElement__sPoster'
p36
g8
sS'_cGuiElement__sDescription'
p37
g8
sS'_cGuiElement__sGenre'
p38
g8
sS'_cGuiElement__sTitle'
p39
S'Documentaires'
p40
sS'_cGuiElement__sTmdb'
p41
g8
sS'_cGuiElement__sFunctionName'
p42
g28
sS'_cGuiElement__ImdbId'
p43
g8
sS'_cGuiElement__Episode'
p44
g8
sS'_cGuiElement__sType'
p45
S'video'
p46
sS'_cGuiElement__sCat'
p47
g8
sS'_cGuiElement__sSiteName'
p48
g22
sS'_cGuiElement__aItemValues'
p49
(dp50
S'originaltitle'
p51
g6
sS'trailer'
p52
S'plugin'
p53
sS'title'
p54
g40
ssS'_cGuiElement__sMeta'
p55
I0
sS'_cGuiElement__sSiteUrl'
p56
g26
sS'_cGuiElement__sThumbnail'
p57
S'file:///usr/lib/enigma2/python/Plugins/Extensions/IPTVPlayer/tsiplayer/addons/resources/art/doc.png'
p58
sS'_cGuiElement__sRootArt'
p59
S'file:///usr/lib/enigma2/python/Plugins/Extensions/IPTVPlayer/tsiplayer/addons/resources/art/'
p60
sba(iPlugins.Extensions.IPTVPlayer.tsiplayer.addons.resources.lib.handler.outputParameterHandler
cOutputParameterHandler
p61
(dp62
S'_cOutputParameterHandler__aParams'
p63
(dp64
g25
g26
sS'sTitleWatched'
p65
g6
sg27
g28
ssbaF1625077593720.0
a.(lp0
(iPlugins.Extensions.IPTVPlayer.tsiplayer.addons.resources.lib.gui.guiElement
cGuiElement
p1
(dp2
S'_cGuiElement__sMetaAddon'
p3
S'false'
p4
sS'_cGuiElement__sTitleWatched'
p5
S'sports'
p6
sS'_cGuiElement__sImdb'
p7
S''
p8
sS'_cGuiElement__Year'
p9
g8
sS'_cGuiElement__sPlaycount'
p10
I0
sS'_cGuiElement__sDecoColor'
p11
S'lightcoral'
p12
sS'_cGuiElement__sFileName'
p13
g8
sS'_cGuiElement__sCleanTitle'
p14
S'Sports'
p15
sS'_cGuiElement__TmdbId'
p16
g8
sS'_cGuiElement__Season'
p17
g8
sS'_cGuiElement__sMediaUrl'
p18
g8
sS'_cGuiElement__aProperties'
p19
(dp20
S'sId'
p21
S'cHome'
p22
sS'sMeta'
p23
S'0'
p24
sS'siteUrl'
p25
S'http://venom'
p26
sS'sFav'
p27
S'showSports'
p28
sS'sCleanTitle'
p29
g8
ssS'_cGuiElement__sIcon'
p30
S'sport.png'
p31
sS'_cGuiElement__sFanart'
p32
g8
sS'_cGuiElement__aContextElements'
p33
(lp34
sS'_cGuiElement__sTrailer'
p35
g8
sS'_cGuiElement__sPoster'
p36
g8
sS'_cGuiElement__sDescription'
p37
g8
sS'_cGuiElement__sGenre'
p38
g8
sS'_cGuiElement__sTitle'
p39
S'Sports'
p40
sS'_cGuiElement__sTmdb'
p41
g8
sS'_cGuiElement__sFunctionName'
p42
g28
sS'_cGuiElement__ImdbId'
p43
g8
sS'_cGuiElement__Episode'
p44
g8
sS'_cGuiElement__sType'
p45
S'video'
p46
sS'_cGuiElement__sCat'
p47
g8
sS'_cGuiElement__sSiteName'
p48
g22
sS'_cGuiElement__aItemValues'
p49
(dp50
S'originaltitle'
p51
g6
sS'trailer'
p52
S'plugin'
p53
sS'title'
p54
g40
ssS'_cGuiElement__sMeta'
p55
I0
sS'_cGuiElement__sSiteUrl'
p56
g26
sS'_cGuiElement__sThumbnail'
p57
S'file:///usr/lib/enigma2/python/Plugins/Extensions/IPTVPlayer/tsiplayer/addons/resources/art/sport.png'
p58
sS'_cGuiElement__sRootArt'
p59
S'file:///usr/lib/enigma2/python/Plugins/Extensions/IPTVPlayer/tsiplayer/addons/resources/art/'
p60
sba(iPlugins.Extensions.IPTVPlayer.tsiplayer.addons.resources.lib.handler.outputParameterHandler
cOutputParameterHandler
p61
(dp62
S'_cOutputParameterHandler__aParams'
p63
(dp64
g25
g26
sS'sTitleWatched'
p65
g6
sg27
g28
ssbaF1625077593728.0
a.(lp0
(iPlugins.Extensions.IPTVPlayer.tsiplayer.addons.resources.lib.gui.guiElement
cGuiElement
p1
(dp2
S'_cGuiElement__sMetaAddon'
p3
S'false'
p4
sS'_cGuiElement__sTitleWatched'
p5
S'videosdunet'
p6
sS'_cGuiElement__sImdb'
p7
S''
p8
sS'_cGuiElement__Year'
p9
g8
sS'_cGuiElement__sPlaycount'
p10
I0
sS'_cGuiElement__sDecoColor'
p11
S'lightcoral'
p12
sS'_cGuiElement__sFileName'
p13
g8
sS'_cGuiElement__sCleanTitle'
p14
S'Vid\xc3\xa9os du net'
p15
sS'_cGuiElement__TmdbId'
p16
g8
sS'_cGuiElement__Season'
p17
g8
sS'_cGuiElement__sMediaUrl'
p18
g8
sS'_cGuiElement__aProperties'
p19
(dp20
S'sId'
p21
S'cHome'
p22
sS'sMeta'
p23
S'0'
p24
sS'siteUrl'
p25
S'http://venom'
p26
sS'sFav'
p27
S'showNets'
p28
sS'sCleanTitle'
p29
g8
ssS'_cGuiElement__sIcon'
p30
S'buzz.png'
p31
sS'_cGuiElement__sFanart'
p32
g8
sS'_cGuiElement__aContextElements'
p33
(lp34
sS'_cGuiElement__sTrailer'
p35
g8
sS'_cGuiElement__sPoster'
p36
g8
sS'_cGuiElement__sDescription'
p37
g8
sS'_cGuiElement__sGenre'
p38
g8
sS'_cGuiElement__sTitle'
p39
S'Vid\xc3\xa9os du net'
p40
sS'_cGuiElement__sTmdb'
p41
g8
sS'_cGuiElement__sFunctionName'
p42
g28
sS'_cGuiElement__ImdbId'
p43
g8
sS'_cGuiElement__Episode'
p44
g8
sS'_cGuiElement__sType'
p45
S'video'
p46
sS'_cGuiElement__sCat'
p47
g8
sS'_cGuiElement__sSiteName'
p48
g22
sS'_cGuiElement__aItemValues'
p49
(dp50
S'originaltitle'
p51
g6
sS'trailer'
p52
S'plugin'
p53
sS'title'
p54
g40
ssS'_cGuiElement__sMeta'
p55
I0
sS'_cGuiElement__sSiteUrl'
p56
g26
sS'_cGuiElement__sThumbnail'
p57
S'file:///usr/lib/enigma2/python/Plugins/Extensions/IPTVPlayer/tsiplayer/addons/resources/art/buzz.png'
p58
sS'_cGuiElement__sRootArt'
p59
S'file:///usr/lib/enigma2/python/Plugins/Extensions/IPTVPlayer/tsiplayer/addons/resources/art/'
p60
sba(iPlugins.Extensions.IPTVPlayer.tsiplayer.addons.resources.lib.handler.outputParameterHandler
cOutputParameterHandler
p61
(dp62
S'_cOutputParameterHandler__aParams'
p63
(dp64
g25
g26
sS'sTitleWatched'
p65
g6
sg27
g28
ssbaF1625077593736.0
a.(lp0
(iPlugins.Extensions.IPTVPlayer.tsiplayer.addons.resources.lib.gui.guiElement
cGuiElement
p1
(dp2
S'_cGuiElement__sMetaAddon'
p3
S'false'
p4
sS'_cGuiElement__sTitleWatched'
p5
S'tvreplay'
p6
sS'_cGuiElement__sImdb'
p7
S''
p8
sS'_cGuiElement__Year'
p9
g8
sS'_cGuiElement__sPlaycount'
p10
I0
sS'_cGuiElement__sDecoColor'
p11
S'lightcoral'
p12
sS'_cGuiElement__sFileName'
p13
g8
sS'_cGuiElement__sCleanTitle'
p14
S'TV replay'
p15
sS'_cGuiElement__TmdbId'
p16
g8
sS'_cGuiElement__Season'
p17
g8
sS'_cGuiElement__sMediaUrl'
p18
g8
sS'_cGuiElement__aProperties'
p19
(dp20
S'sId'
p21
S'cHome'
p22
sS'sMeta'
p23
S'0'
p24
sS'siteUrl'
p25
S'http://venom'
p26
sS'sFav'
p27
S'showReplay'
p28
sS'sCleanTitle'
p29
g8
ssS'_cGuiElement__sIcon'
p30
S'replay.png'
p31
sS'_cGuiElement__sFanart'
p32
g8
sS'_cGuiElement__aContextElements'
p33
(lp34
sS'_cGuiElement__sTrailer'
p35
g8
sS'_cGuiElement__sPoster'
p36
g8
sS'_cGuiElement__sDescription'
p37
g8
sS'_cGuiElement__sGenre'
p38
g8
sS'_cGuiElement__sTitle'
p39
S'TV replay'
p40
sS'_cGuiElement__sTmdb'
p41
g8
sS'_cGuiElement__sFunctionName'
p42
g28
sS'_cGuiElement__ImdbId'
p43
g8
sS'_cGuiElement__Episode'
p44
g8
sS'_cGuiElement__sType'
p45
S'video'
p46
sS'_cGuiElement__sCat'
p47
g8
sS'_cGuiElement__sSiteName'
p48
g22
sS'_cGuiElement__aItemValues'
p49
(dp50
S'originaltitle'
p51
g6
sS'trailer'
p52
S'plugin'
p53
sS'title'
p54
g40
ssS'_cGuiElement__sMeta'
p55
I0
sS'_cGuiElement__sSiteUrl'
p56
g26
sS'_cGuiElement__sThumbnail'
p57
S'file:///usr/lib/enigma2/python/Plugins/Extensions/IPTVPlayer/tsiplayer/addons/resources/art/replay.png'
p58
sS'_cGuiElement__sRootArt'
p59
S'file:///usr/lib/enigma2/python/Plugins/Extensions/IPTVPlayer/tsiplayer/addons/resources/art/'
p60
sba(iPlugins.Extensions.IPTVPlayer.tsiplayer.addons.resources.lib.handler.outputParameterHandler
cOutputParameterHandler
p61
(dp62
S'_cOutputParameterHandler__aParams'
p63
(dp64
g25
g26
sS'sTitleWatched'
p65
g6
sg27
g28
ssbaF1625077593751.0
a.(lp0
(iPlugins.Extensions.IPTVPlayer.tsiplayer.addons.resources.lib.gui.guiElement
cGuiElement
p1
(dp2
S'_cGuiElement__sMetaAddon'
p3
S'false'
p4
sS'_cGuiElement__sTitleWatched'
p5
S'mescomptes'
p6
sS'_cGuiElement__sImdb'
p7
S''
p8
sS'_cGuiElement__Year'
p9
g8
sS'_cGuiElement__sPlaycount'
p10
I0
sS'_cGuiElement__sDecoColor'
p11
S'lightcoral'
p12
sS'_cGuiElement__sFileName'
p13
g8
sS'_cGuiElement__sCleanTitle'
p14
S'Mes comptes'
p15
sS'_cGuiElement__TmdbId'
p16
g8
sS'_cGuiElement__Season'
p17
g8
sS'_cGuiElement__sMediaUrl'
p18
g8
sS'_cGuiElement__aProperties'
p19
(dp20
S'sId'
p21
S'cHome'
p22
sS'sMeta'
p23
S'0'
p24
sS'siteUrl'
p25
S'http://venom'
p26
sS'sFav'
p27
S'showUsers'
p28
sS'sCleanTitle'
p29
g8
ssS'_cGuiElement__sIcon'
p30
S'user.png'
p31
sS'_cGuiElement__sFanart'
p32
g8
sS'_cGuiElement__aContextElements'
p33
(lp34
sS'_cGuiElement__sTrailer'
p35
g8
sS'_cGuiElement__sPoster'
p36
g8
sS'_cGuiElement__sDescription'
p37
g8
sS'_cGuiElement__sGenre'
p38
g8
sS'_cGuiElement__sTitle'
p39
S'Mes comptes'
p40
sS'_cGuiElement__sTmdb'
p41
g8
sS'_cGuiElement__sFunctionName'
p42
g28
sS'_cGuiElement__ImdbId'
p43
g8
sS'_cGuiElement__Episode'
p44
g8
sS'_cGuiElement__sType'
p45
S'video'
p46
sS'_cGuiElement__sCat'
p47
g8
sS'_cGuiElement__sSiteName'
p48
g22
sS'_cGuiElement__aItemValues'
p49
(dp50
S'originaltitle'
p51
g6
sS'trailer'
p52
S'plugin'
p53
sS'title'
p54
g40
ssS'_cGuiElement__sMeta'
p55
I0
sS'_cGuiElement__sSiteUrl'
p56
g26
sS'_cGuiElement__sThumbnail'
p57
S'file:///usr/lib/enigma2/python/Plugins/Extensions/IPTVPlayer/tsiplayer/addons/resources/art/user.png'
p58
sS'_cGuiElement__sRootArt'
p59
S'file:///usr/lib/enigma2/python/Plugins/Extensions/IPTVPlayer/tsiplayer/addons/resources/art/'
p60
sba(iPlugins.Extensions.IPTVPlayer.tsiplayer.addons.resources.lib.handler.outputParameterHandler
cOutputParameterHandler
p61
(dp62
S'_cOutputParameterHandler__aParams'
p63
(dp64
g25
g26
sS'sTitleWatched'
p65
g6
sg27
g28
ssbaF1625077593760.0
a.(lp0
(iPlugins.Extensions.IPTVPlayer.tsiplayer.addons.resources.lib.gui.guiElement
cGuiElement
p1
(dp2
S'_cGuiElement__sMetaAddon'
p3
S'false'
p4
sS'_cGuiElement__sTitleWatched'
p5
S'outils'
p6
sS'_cGuiElement__sImdb'
p7
S''
p8
sS'_cGuiElement__Year'
p9
g8
sS'_cGuiElement__sPlaycount'
p10
I0
sS'_cGuiElement__sDecoColor'
p11
S'lightcoral'
p12
sS'_cGuiElement__sFileName'
p13
g8
sS'_cGuiElement__sCleanTitle'
p14
S'Outils'
p15
sS'_cGuiElement__TmdbId'
p16
g8
sS'_cGuiElement__Season'
p17
g8
sS'_cGuiElement__sMediaUrl'
p18
g8
sS'_cGuiElement__aProperties'
p19
(dp20
S'sId'
p21
S'cHome'
p22
sS'sMeta'
p23
S'0'
p24
sS'siteUrl'
p25
S'http://venom'
p26
sS'sFav'
p27
S'ShowTools'
p28
sS'sCleanTitle'
p29
g8
ssS'_cGuiElement__sIcon'
p30
S'download.png'
p31
sS'_cGuiElement__sFanart'
p32
g8
sS'_cGuiElement__aContextElements'
p33
(lp34
sS'_cGuiElement__sTrailer'
p35
g8
sS'_cGuiElement__sPoster'
p36
g8
sS'_cGuiElement__sDescription'
p37
g8
sS'_cGuiElement__sGenre'
p38
g8
sS'_cGuiElement__sTitle'
p39
S'Outils'
p40
sS'_cGuiElement__sTmdb'
p41
g8
sS'_cGuiElement__sFunctionName'
p42
g28
sS'_cGuiElement__ImdbId'
p43
g8
sS'_cGuiElement__Episode'
p44
g8
sS'_cGuiElement__sType'
p45
S'video'
p46
sS'_cGuiElement__sCat'
p47
g8
sS'_cGuiElement__sSiteName'
p48
g22
sS'_cGuiElement__aItemValues'
p49
(dp50
S'originaltitle'
p51
g6
sS'trailer'
p52
S'plugin'
p53
sS'title'
p54
g40
ssS'_cGuiElement__sMeta'
p55
I0
sS'_cGuiElement__sSiteUrl'
p56
g26
sS'_cGuiElement__sThumbnail'
p57
S'file:///usr/lib/enigma2/python/Plugins/Extensions/IPTVPlayer/tsiplayer/addons/resources/art/download.png'
p58
sS'_cGuiElement__sRootArt'
p59
S'file:///usr/lib/enigma2/python/Plugins/Extensions/IPTVPlayer/tsiplayer/addons/resources/art/'
p60
sba(iPlugins.Extensions.IPTVPlayer.tsiplayer.addons.resources.lib.handler.outputParameterHandler
cOutputParameterHandler
p61
(dp62
S'_cOutputParameterHandler__aParams'
p63
(dp64
g25
g26
sS'sTitleWatched'
p65
g6
sg27
g28
ssbaF1625077593767.0
a.(lp0
(iPlugins.Extensions.IPTVPlayer.tsiplayer.addons.resources.lib.gui.guiElement
cGuiElement
p1
(dp2
S'_cGuiElement__sMetaAddon'
p3
S'false'
p4
sS'_cGuiElement__sTitleWatched'
p5
S'historiquederecherche'
p6
sS'_cGuiElement__sImdb'
p7
S''
p8
sS'_cGuiElement__Year'
p9
g8
sS'_cGuiElement__sPlaycount'
p10
I0
sS'_cGuiElement__sDecoColor'
p11
S'lightcoral'
p12
sS'_cGuiElement__sFileName'
p13
g8
sS'_cGuiElement__sCleanTitle'
p14
S'Historique de recherche'
p15
sS'_cGuiElement__TmdbId'
p16
g8
sS'_cGuiElement__Season'
p17
g8
sS'_cGuiElement__sMediaUrl'
p18
g8
sS'_cGuiElement__aProperties'
p19
(dp20
S'sId'
p21
S'cHome'
p22
sS'sMeta'
p23
S'0'
p24
sS'siteUrl'
p25
S'http://venom'
p26
sS'sFav'
p27
S'showHistory'
p28
sS'sCleanTitle'
p29
g8
ssS'_cGuiElement__sIcon'
p30
S'annees.png'
p31
sS'_cGuiElement__sFanart'
p32
g8
sS'_cGuiElement__aContextElements'
p33
(lp34
sS'_cGuiElement__sTrailer'
p35
g8
sS'_cGuiElement__sPoster'
p36
g8
sS'_cGuiElement__sDescription'
p37
g8
sS'_cGuiElement__sGenre'
p38
g8
sS'_cGuiElement__sTitle'
p39
S'Historique de recherche'
p40
sS'_cGuiElement__sTmdb'
p41
g8
sS'_cGuiElement__sFunctionName'
p42
g28
sS'_cGuiElement__ImdbId'
p43
g8
sS'_cGuiElement__Episode'
p44
g8
sS'_cGuiElement__sType'
p45
S'video'
p46
sS'_cGuiElement__sCat'
p47
g8
sS'_cGuiElement__sSiteName'
p48
g22
sS'_cGuiElement__aItemValues'
p49
(dp50
S'originaltitle'
p51
g6
sS'trailer'
p52
S'plugin'
p53
sS'title'
p54
g40
ssS'_cGuiElement__sMeta'
p55
I0
sS'_cGuiElement__sSiteUrl'
p56
g26
sS'_cGuiElement__sThumbnail'
p57
S'file:///usr/lib/enigma2/python/Plugins/Extensions/IPTVPlayer/tsiplayer/addons/resources/art/annees.png'
p58
sS'_cGuiElement__sRootArt'
p59
S'file:///usr/lib/enigma2/python/Plugins/Extensions/IPTVPlayer/tsiplayer/addons/resources/art/'
p60
sba(iPlugins.Extensions.IPTVPlayer.tsiplayer.addons.resources.lib.handler.outputParameterHandler
cOutputParameterHandler
p61
(dp62
S'_cOutputParameterHandler__aParams'
p63
(dp64
g25
g26
sS'sTitleWatched'
p65
g6
sg27
g28
ssbaF1625077593775.0
a.