(lp0
(iPlugins.Extensions.IPTVPlayer.tsiplayer.addons.resources.lib.gui.guiElement
cGuiElement
p1
(dp2
S'_cGuiElement__sMetaAddon'
p3
S'false'
p4
sS'_cGuiElement__sTitleWatched'
p5
S'recherchevisuelle'
p6
sS'_cGuiElement__sImdb'
p7
S''
p8
sS'_cGuiElement__Year'
p9
g8
sS'_cGuiElement__sPlaycount'
p10
I0
sS'_cGuiElement__sDecoColor'
p11
S'lightcoral'
p12
sS'_cGuiElement__sFileName'
p13
g8
sS'_cGuiElement__sCleanTitle'
p14
S'Recherche visuelle'
p15
sS'_cGuiElement__TmdbId'
p16
g8
sS'_cGuiElement__Season'
p17
g8
sS'_cGuiElement__sMediaUrl'
p18
g8
sS'_cGuiElement__aProperties'
p19
(dp20
S'sId'
p21
S'themoviedb_org'
p22
sS'sMeta'
p23
S'0'
p24
sS'siteUrl'
p25
S'http://venom'
p26
sS'sFav'
p27
S'load'
p28
sS'sCleanTitle'
p29
g8
ssS'_cGuiElement__sIcon'
p30
S'searchtmdb.png'
p31
sS'_cGuiElement__sFanart'
p32
g8
sS'_cGuiElement__aContextElements'
p33
(lp34
sS'_cGuiElement__sTrailer'
p35
g8
sS'_cGuiElement__sPoster'
p36
g8
sS'_cGuiElement__sDescription'
p37
g8
sS'_cGuiElement__sGenre'
p38
g8
sS'_cGuiElement__sTitle'
p39
S'Recherche visuelle'
p40
sS'_cGuiElement__sTmdb'
p41
g8
sS'_cGuiElement__sFunctionName'
p42
g28
sS'_cGuiElement__ImdbId'
p43
g8
sS'_cGuiElement__Episode'
p44
g8
sS'_cGuiElement__sType'
p45
S'video'
p46
sS'_cGuiElement__sCat'
p47
g8
sS'_cGuiElement__sSiteName'
p48
g22
sS'_cGuiElement__aItemValues'
p49
(dp50
S'originaltitle'
p51
g6
sS'trailer'
p52
S'plugin'
p53
sS'title'
p54
g40
ssS'_cGuiElement__sMeta'
p55
I0
sS'_cGuiElement__sSiteUrl'
p56
g26
sS'_cGuiElement__sThumbnail'
p57
S'file:///usr/lib/enigma2/python/Plugins/Extensions/IPTVPlayer/tsiplayer/addons/resources/art/searchtmdb.png'
p58
sS'_cGuiElement__sRootArt'
p59
S'file:///usr/lib/enigma2/python/Plugins/Extensions/IPTVPlayer/tsiplayer/addons/resources/art/'
p60
sba(iPlugins.Extensions.IPTVPlayer.tsiplayer.addons.resources.lib.handler.outputParameterHandler
cOutputParameterHandler
p61
(dp62
S'_cOutputParameterHandler__aParams'
p63
(dp64
g25
g26
sS'sTitleWatched'
p65
g6
sg27
g28
ssbaF1625077593673.0
a.